target datalayout = "e-m:e-p270:32:32-p271:32:32-p272:64:64-i64:64-i128:128-f80:128-n8:16:32:64-S128"
target triple = "x86_64-unknown-linux-gnu"

%"class.std::__cxx11::basic_string" = type { %"struct.std::__cxx11::basic_string<char>::_Alloc_hider", i64, %union.anon }
%"struct.std::__cxx11::basic_string<char>::_Alloc_hider" = type { ptr }
%union.anon = type { i64, [8 x i8] }
%"class.rocksdb::IOStatus" = type { %"class.rocksdb::Status" }
%"class.rocksdb::Status" = type { i8, i8, i8, i8, i8, i8, %"class.std::unique_ptr" }
%"class.std::unique_ptr" = type { %"struct.std::__uniq_ptr_data" }
%"struct.std::__uniq_ptr_data" = type { %"class.std::__uniq_ptr_impl" }
%"class.std::__uniq_ptr_impl" = type { %"class.std::tuple" }
%"class.std::tuple" = type { %"struct.std::_Tuple_impl" }
%"struct.std::_Tuple_impl" = type { %"struct.std::_Head_base.4" }
%"struct.std::_Head_base.4" = type { ptr }
%"struct.rocksdb::(anonymous namespace)::BackupEngineImpl::CopyOrCreateResult" = type <{ i64, %"class.std::__cxx11::basic_string", %"class.std::__cxx11::basic_string", %"class.std::__cxx11::basic_string", %"class.rocksdb::IOStatus", i8, i8, [6 x i8] }>

; Function Attrs: mustprogress uwtable
define internal void @_ZN7rocksdb12_GLOBAL__N_116BackupEngineImpl18CopyOrCreateResultC2ERKS2_(ptr noundef nonnull align 8 dereferenceable(122) %this, ptr noundef nonnull align 8 dereferenceable(122) %0) unnamed_addr #0 align 2 personality ptr @__gxx_personality_v0 {
entry:
  %this.addr = alloca ptr, align 8
  %.addr = alloca ptr, align 8
  %exn.slot = alloca ptr, align 8
  %ehselector.slot = alloca i32, align 4
  store ptr %this, ptr %this.addr, align 8
  store ptr %0, ptr %.addr, align 8
  %this1 = load ptr, ptr %this.addr, align 8
  %size = getelementptr inbounds %"struct.rocksdb::(anonymous namespace)::BackupEngineImpl::CopyOrCreateResult", ptr %this1, i32 0, i32 0
  %1 = load ptr, ptr %.addr, align 8
  %size2 = getelementptr inbounds %"struct.rocksdb::(anonymous namespace)::BackupEngineImpl::CopyOrCreateResult", ptr %1, i32 0, i32 0
  %2 = load i64, ptr %size2, align 8
  store i64 %2, ptr %size, align 8
  %checksum_hex = getelementptr inbounds %"struct.rocksdb::(anonymous namespace)::BackupEngineImpl::CopyOrCreateResult", ptr %this1, i32 0, i32 1
  %3 = load ptr, ptr %.addr, align 8
  %checksum_hex3 = getelementptr inbounds %"struct.rocksdb::(anonymous namespace)::BackupEngineImpl::CopyOrCreateResult", ptr %3, i32 0, i32 1
  call void @_ZNSt7__cxx1112basic_stringIcSt11char_traitsIcESaIcEEC1ERKS4_(ptr noundef nonnull align 8 dereferenceable(32) %checksum_hex, ptr noundef nonnull align 8 dereferenceable(32) %checksum_hex3)
  %db_id = getelementptr inbounds %"struct.rocksdb::(anonymous namespace)::BackupEngineImpl::CopyOrCreateResult", ptr %this1, i32 0, i32 2
  %4 = load ptr, ptr %.addr, align 8
  %db_id4 = getelementptr inbounds %"struct.rocksdb::(anonymous namespace)::BackupEngineImpl::CopyOrCreateResult", ptr %4, i32 0, i32 2
  invoke void @_ZNSt7__cxx1112basic_stringIcSt11char_traitsIcESaIcEEC1ERKS4_(ptr noundef nonnull align 8 dereferenceable(32) %db_id, ptr noundef nonnull align 8 dereferenceable(32) %db_id4)
          to label %invoke.cont unwind label %lpad

invoke.cont:                                      ; preds = %entry
  %db_session_id = getelementptr inbounds %"struct.rocksdb::(anonymous namespace)::BackupEngineImpl::CopyOrCreateResult", ptr %this1, i32 0, i32 3
  %5 = load ptr, ptr %.addr, align 8
  %db_session_id5 = getelementptr inbounds %"struct.rocksdb::(anonymous namespace)::BackupEngineImpl::CopyOrCreateResult", ptr %5, i32 0, i32 3
  invoke void @_ZNSt7__cxx1112basic_stringIcSt11char_traitsIcESaIcEEC1ERKS4_(ptr noundef nonnull align 8 dereferenceable(32) %db_session_id, ptr noundef nonnull align 8 dereferenceable(32) %db_session_id5)
          to label %invoke.cont7 unwind label %lpad6

invoke.cont7:                                     ; preds = %invoke.cont
  %io_status = getelementptr inbounds %"struct.rocksdb::(anonymous namespace)::BackupEngineImpl::CopyOrCreateResult", ptr %this1, i32 0, i32 4
  %6 = load ptr, ptr %.addr, align 8
  %io_status8 = getelementptr inbounds %"struct.rocksdb::(anonymous namespace)::BackupEngineImpl::CopyOrCreateResult", ptr %6, i32 0, i32 4
  invoke void @_ZN7rocksdb8IOStatusC2ERKS0_(ptr noundef nonnull align 8 dereferenceable(16) %io_status, ptr noundef nonnull align 8 dereferenceable(16) %io_status8)
          to label %invoke.cont10 unwind label %lpad9

invoke.cont10:                                    ; preds = %invoke.cont7
  %expected_src_temperature = getelementptr inbounds %"struct.rocksdb::(anonymous namespace)::BackupEngineImpl::CopyOrCreateResult", ptr %this1, i32 0, i32 5
  %7 = load ptr, ptr %.addr, align 8
  %expected_src_temperature11 = getelementptr inbounds %"struct.rocksdb::(anonymous namespace)::BackupEngineImpl::CopyOrCreateResult", ptr %7, i32 0, i32 5
  call void @llvm.memcpy.p0.p0.i64(ptr align 8 %expected_src_temperature, ptr align 8 %expected_src_temperature11, i64 2, i1 false)
  ret void

lpad:                                             ; preds = %entry
  %8 = landingpad { ptr, i32 }
          cleanup
  %9 = extractvalue { ptr, i32 } %8, 0
  store ptr %9, ptr %exn.slot, align 8
  %10 = extractvalue { ptr, i32 } %8, 1
  store i32 %10, ptr %ehselector.slot, align 4
  br label %ehcleanup12

lpad6:                                            ; preds = %invoke.cont
  %11 = landingpad { ptr, i32 }
          cleanup
  %12 = extractvalue { ptr, i32 } %11, 0
  store ptr %12, ptr %exn.slot, align 8
  %13 = extractvalue { ptr, i32 } %11, 1
  store i32 %13, ptr %ehselector.slot, align 4
  br label %ehcleanup

lpad9:                                            ; preds = %invoke.cont7
  %14 = landingpad { ptr, i32 }
          cleanup
  %15 = extractvalue { ptr, i32 } %14, 0
  store ptr %15, ptr %exn.slot, align 8
  %16 = extractvalue { ptr, i32 } %14, 1
  store i32 %16, ptr %ehselector.slot, align 4
  call void @_ZNSt7__cxx1112basic_stringIcSt11char_traitsIcESaIcEED1Ev(ptr noundef nonnull align 8 dereferenceable(32) %db_session_id) #3
  br label %ehcleanup

ehcleanup:                                        ; preds = %lpad9, %lpad6
  call void @_ZNSt7__cxx1112basic_stringIcSt11char_traitsIcESaIcEED1Ev(ptr noundef nonnull align 8 dereferenceable(32) %db_id) #3
  br label %ehcleanup12

ehcleanup12:                                      ; preds = %ehcleanup, %lpad
  call void @_ZNSt7__cxx1112basic_stringIcSt11char_traitsIcESaIcEED1Ev(ptr noundef nonnull align 8 dereferenceable(32) %checksum_hex) #3
  br label %eh.resume

eh.resume:                                        ; preds = %ehcleanup12
  %exn = load ptr, ptr %exn.slot, align 8
  %sel = load i32, ptr %ehselector.slot, align 4
  %lpad.val = insertvalue { ptr, i32 } poison, ptr %exn, 0
  %lpad.val13 = insertvalue { ptr, i32 } %lpad.val, i32 %sel, 1
  resume { ptr, i32 } %lpad.val13
}