; Function Attrs: mustprogress uwtable
define internal fastcc void @_ZN7rocksdb12_GLOBAL__N_116BackupEngineImpl18CopyOrCreateResultC2ERKS2_(ptr noundef nonnull align 8 dereferenceable(122) %this, ptr noundef nonnull align 8 dereferenceable(122) %0) unnamed_addr #3 align 2 personality ptr @__gxx_personality_v0 {
entry:
  %1 = load i64, ptr %0, align 8
  store i64 %1, ptr %this, align 8
  %checksum_hex = getelementptr inbounds i8, ptr %this, i64 8
  %checksum_hex3 = getelementptr inbounds i8, ptr %0, i64 8
  tail call void @_ZNSt7__cxx1112basic_stringIcSt11char_traitsIcESaIcEEC1ERKS4_(ptr noundef nonnull align 8 dereferenceable(32) %checksum_hex, ptr noundef nonnull align 8 dereferenceable(32) %checksum_hex3)
  %db_id = getelementptr inbounds i8, ptr %this, i64 40
  %db_id4 = getelementptr inbounds i8, ptr %0, i64 40
  invoke void @_ZNSt7__cxx1112basic_stringIcSt11char_traitsIcESaIcEEC1ERKS4_(ptr noundef nonnull align 8 dereferenceable(32) %db_id, ptr noundef nonnull align 8 dereferenceable(32) %db_id4)
          to label %invoke.cont unwind label %lpad

invoke.cont:                                      ; preds = %entry
  %db_session_id = getelementptr inbounds i8, ptr %this, i64 72
  %db_session_id5 = getelementptr inbounds i8, ptr %0, i64 72
  invoke void @_ZNSt7__cxx1112basic_stringIcSt11char_traitsIcESaIcEEC1ERKS4_(ptr noundef nonnull align 8 dereferenceable(32) %db_session_id, ptr noundef nonnull align 8 dereferenceable(32) %db_session_id5)
          to label %invoke.cont7 unwind label %lpad6

invoke.cont7:                                     ; preds = %invoke.cont
  %io_status = getelementptr inbounds i8, ptr %this, i64 104
  %io_status8 = getelementptr inbounds i8, ptr %0, i64 104
  invoke void @_ZN7rocksdb8IOStatusC2ERKS0_(ptr noundef nonnull align 8 dereferenceable(16) %io_status, ptr noundef nonnull align 8 dereferenceable(16) %io_status8)
          to label %invoke.cont10 unwind label %lpad9

invoke.cont10:                                    ; preds = %invoke.cont7
  %expected_src_temperature = getelementptr inbounds i8, ptr %this, i64 120
  %expected_src_temperature11 = getelementptr inbounds i8, ptr %0, i64 120
  %2 = load i16, ptr %expected_src_temperature11, align 8
  store i16 %2, ptr %expected_src_temperature, align 8
  ret void

lpad:                                             ; preds = %entry
  %3 = landingpad { ptr, i32 }
          cleanup
  br label %ehcleanup12

lpad6:                                            ; preds = %invoke.cont
  %4 = landingpad { ptr, i32 }
          cleanup
  br label %ehcleanup

lpad9:                                            ; preds = %invoke.cont7
  %5 = landingpad { ptr, i32 }
          cleanup
  tail call void @_ZNSt7__cxx1112basic_stringIcSt11char_traitsIcESaIcEED1Ev(ptr noundef nonnull align 8 dereferenceable(32) %db_session_id) #33
  br label %ehcleanup

ehcleanup:                                        ; preds = %lpad9, %lpad6
  %.pn = phi { ptr, i32 } [ %5, %lpad9 ], [ %4, %lpad6 ]
  tail call void @_ZNSt7__cxx1112basic_stringIcSt11char_traitsIcESaIcEED1Ev(ptr noundef nonnull align 8 dereferenceable(32) %db_id) #33
  br label %ehcleanup12

ehcleanup12:                                      ; preds = %ehcleanup, %lpad
  %.pn.pn = phi { ptr, i32 } [ %.pn, %ehcleanup ], [ %3, %lpad ]
  tail call void @_ZNSt7__cxx1112basic_stringIcSt11char_traitsIcESaIcEED1Ev(ptr noundef nonnull align 8 dereferenceable(32) %checksum_hex) #33
  resume { ptr, i32 } %.pn.pn
}